target datalayout = "e-m:e-p270:32:32-p271:32:32-p272:64:64-i64:64-i128:128-f80:128-n8:16:32:64-S128"
target triple = "x86_64-pc-linux-gnu"

@esc_bold = internal constant [5 x i8] c"\1B[1m\00", align 1
@esc_none = internal constant [1 x i8] zeroinitializer, align 1
@esc_reset = internal constant [5 x i8] c"\1B[0m\00", align 1
@.str.16 = private unnamed_addr constant [2 x i8] c"\0A\00", align 1
@.str.17 = private unnamed_addr constant [4 x i8] c".;:\00", align 1
@.str.18 = private unnamed_addr constant [12 x i8] c"  %s%.*s%s\0A\00", align 1
@.str.19 = private unnamed_addr constant [10 x i8] c"%-*s%.*s\0A\00", align 1
@.str.20 = private unnamed_addr constant [3 x i8] c"  \00", align 1
@.str.21 = private unnamed_addr constant [26 x i8] c"  %s%.*s%-*.*s%s%-*s%.*s\0A\00", align 1
@.str.22 = private unnamed_addr constant [4 x i8] c"\0A  \00", align 1
@.str.23 = private unnamed_addr constant [1 x i8] zeroinitializer, align 1

; Function Attrs: nounwind sspstrong uwtable
define internal void @show_usage_part(ptr noundef %0, i32 noundef %1, ptr noundef %2, i32 noundef %3, ptr noundef %4, i32 noundef %5, i32 noundef %6, i32 noundef %7, i32 noundef %8) #0 {
  %10 = alloca ptr, align 8
  %11 = alloca i32, align 4
  %12 = alloca ptr, align 8
  %13 = alloca i32, align 4
  %14 = alloca ptr, align 8
  %15 = alloca i32, align 4
  %16 = alloca i32, align 4
  %17 = alloca i32, align 4
  %18 = alloca i32, align 4
  %19 = alloca ptr, align 8
  %20 = alloca ptr, align 8
  %21 = alloca i32, align 4
  %22 = alloca i32, align 4
  %23 = alloca i32, align 4
  %24 = alloca i32, align 4
  store ptr %0, ptr %10, align 8, !tbaa !7
  store i32 %1, ptr %11, align 4, !tbaa !12
  store ptr %2, ptr %12, align 8, !tbaa !7
  store i32 %3, ptr %13, align 4, !tbaa !12
  store ptr %4, ptr %14, align 8, !tbaa !7
  store i32 %5, ptr %15, align 4, !tbaa !12
  store i32 %6, ptr %16, align 4, !tbaa !12
  store i32 %7, ptr %17, align 4, !tbaa !12
  store i32 %8, ptr %18, align 4, !tbaa !12
  call void @llvm.lifetime.start.p0(i64 8, ptr %19) #24
  %25 = load i32, ptr %16, align 4, !tbaa !12
  %26 = icmp ne i32 %25, 0
  %27 = select i1 %26, ptr @esc_bold, ptr @esc_none
  store ptr %27, ptr %19, align 8, !tbaa !7
  call void @llvm.lifetime.start.p0(i64 8, ptr %20) #24
  %28 = load i32, ptr %16, align 4, !tbaa !12
  %29 = icmp ne i32 %28, 0
  %30 = select i1 %29, ptr @esc_reset, ptr @esc_none
  store ptr %30, ptr %20, align 8, !tbaa !7
  call void @llvm.lifetime.start.p0(i64 4, ptr %21) #24
  %31 = load ptr, ptr %14, align 8, !tbaa !7
  %32 = call i64 @strcspn(ptr noundef %31, ptr noundef @.str.16) #25
  %33 = trunc i64 %32 to i32
  store i32 %33, ptr %21, align 4, !tbaa !12
  %34 = load i32, ptr %15, align 4, !tbaa !12
  %35 = icmp ne i32 %34, 0
  br i1 %35, label %52, label %36

36:                                               ; preds = %9
  %37 = load i32, ptr %21, align 4, !tbaa !12
  %38 = icmp ugt i32 %37, 0
  br i1 %38, label %39, label %52

39:                                               ; preds = %36
  %40 = load ptr, ptr %14, align 8, !tbaa !7
  %41 = load i32, ptr %21, align 4, !tbaa !12
  %42 = sub i32 %41, 1
  %43 = zext i32 %42 to i64
  %44 = getelementptr i8, ptr %40, i64 %43
  %45 = load i8, ptr %44, align 1, !tbaa !14
  %46 = sext i8 %45 to i32
  %47 = call ptr @strchr(ptr noundef @.str.17, i32 noundef %46) #25
  %48 = icmp ne ptr %47, null
  br i1 %48, label %49, label %52

49:                                               ; preds = %39
  %50 = load i32, ptr %21, align 4, !tbaa !12
  %51 = add i32 %50, -1
  store i32 %51, ptr %21, align 4, !tbaa !12
  br label %52

52:                                               ; preds = %49, %39, %36, %9
  %53 = load i32, ptr %15, align 4, !tbaa !12
  %54 = icmp ne i32 %53, 0
  br i1 %54, label %55, label %115

55:                                               ; preds = %52
  %56 = load i32, ptr %11, align 4, !tbaa !12
  %57 = add i32 %56, 1
  %58 = load i32, ptr %17, align 4, !tbaa !12
  %59 = icmp ugt i32 %57, %58
  br i1 %59, label %60, label %115

60:                                               ; preds = %55
  %61 = load i32, ptr %11, align 4, !tbaa !12
  %62 = load i32, ptr %13, align 4, !tbaa !12
  %63 = add i32 %61, %62
  %64 = add i32 %63, 2
  %65 = load i32, ptr %18, align 4, !tbaa !12
  %66 = icmp sge i32 %64, %65
  br i1 %66, label %67, label %115

67:                                               ; preds = %60
  %68 = load ptr, ptr %19, align 8, !tbaa !7
  %69 = load i32, ptr %11, align 4, !tbaa !12
  %70 = load ptr, ptr %10, align 8, !tbaa !7
  %71 = load ptr, ptr %20, align 8, !tbaa !7
  %72 = call i32 (i32, ptr, ...) @__printf_chk(i32 noundef 1, ptr noundef @.str.18, ptr noundef %68, i32 noundef %69, ptr noundef %70, ptr noundef %71)
  %73 = load i32, ptr %13, align 4, !tbaa !12
  %74 = icmp ugt i32 %73, 0
  br i1 %74, label %75, label %109

75:                                               ; preds = %67
  call void @llvm.lifetime.start.p0(i64 4, ptr %22) #24
  %76 = load i32, ptr %13, align 4, !tbaa !12
  store i32 %76, ptr %22, align 4, !tbaa !12
  call void @llvm.lifetime.start.p0(i64 4, ptr %23) #24
  store i32 0, ptr %23, align 4, !tbaa !12
  %77 = load ptr, ptr %12, align 8, !tbaa !7
  %78 = load i32, ptr %23, align 4, !tbaa !12
  %79 = sext i32 %78 to i64
  %80 = getelementptr i8, ptr %77, i64 %79
  %81 = load i8, ptr %80, align 1, !tbaa !14
  %82 = sext i8 %81 to i32
  %83 = icmp eq i32 %82, 44
  br i1 %83, label %84, label %87

84:                                               ; preds = %75
  %85 = load i32, ptr %23, align 4, !tbaa !12
  %86 = add i32 %85, 1
  store i32 %86, ptr %23, align 4, !tbaa !12
  br label %87

87:                                               ; preds = %84, %75
  %88 = load ptr, ptr %12, align 8, !tbaa !7
  %89 = load i32, ptr %23, align 4, !tbaa !12
  %90 = sext i32 %89 to i64
  %91 = getelementptr i8, ptr %88, i64 %90
  %92 = load i8, ptr %91, align 1, !tbaa !14
  %93 = sext i8 %92 to i32
  %94 = icmp eq i32 %93, 32
  br i1 %94, label %95, label %98

95:                                               ; preds = %87
  %96 = load i32, ptr %23, align 4, !tbaa !12
  %97 = add i32 %96, 1
  store i32 %97, ptr %23, align 4, !tbaa !12
  br label %98

98:                                               ; preds = %95, %87
  %99 = load ptr, ptr %19, align 8, !tbaa !7
  %100 = load i32, ptr %22, align 4, !tbaa !12
  %101 = load i32, ptr %23, align 4, !tbaa !12
  %102 = sub i32 %100, %101
  %103 = load ptr, ptr %12, align 8, !tbaa !7
  %104 = load i32, ptr %23, align 4, !tbaa !12
  %105 = sext i32 %104 to i64
  %106 = getelementptr i8, ptr %103, i64 %105
  %107 = load ptr, ptr %20, align 8, !tbaa !7
  %108 = call i32 (i32, ptr, ...) @__printf_chk(i32 noundef 1, ptr noundef @.str.18, ptr noundef %99, i32 noundef %102, ptr noundef %106, ptr noundef %107)
  call void @llvm.lifetime.end.p0(i64 4, ptr %23) #24
  call void @llvm.lifetime.end.p0(i64 4, ptr %22) #24
  br label %109

109:                                              ; preds = %98, %67
  %110 = load i32, ptr %17, align 4, !tbaa !12
  %111 = add i32 %110, 2
  %112 = load i32, ptr %21, align 4, !tbaa !12
  %113 = load ptr, ptr %14, align 8, !tbaa !7
  %114 = call i32 (i32, ptr, ...) @__printf_chk(i32 noundef 1, ptr noundef @.str.19, i32 noundef %111, ptr noundef @.str.20, i32 noundef %112, ptr noundef %113)
  br label %164

115:                                              ; preds = %60, %55, %52
  call void @llvm.lifetime.start.p0(i64 4, ptr %24) #24
  %116 = load i32, ptr %15, align 4, !tbaa !12
  %117 = icmp ne i32 %116, 0
  br i1 %117, label %118, label %124

118:                                              ; preds = %115
  %119 = load i32, ptr %11, align 4, !tbaa !12
  %120 = load i32, ptr %13, align 4, !tbaa !12
  %121 = add i32 %119, %120
  %122 = load i32, ptr %17, align 4, !tbaa !12
  %123 = icmp uge i32 %121, %122
  br label %124

124:                                              ; preds = %118, %115
  %125 = phi i1 [ false, %115 ], [ %123, %118 ]
  %126 = zext i1 %125 to i32
  store i32 %126, ptr %24, align 4, !tbaa !12
  %127 = load ptr, ptr %19, align 8, !tbaa !7
  %128 = load i32, ptr %11, align 4, !tbaa !12
  %129 = load ptr, ptr %10, align 8, !tbaa !7
  %130 = load i32, ptr %24, align 4, !tbaa !12
  %131 = icmp ne i32 %130, 0
  br i1 %131, label %132, label %133

132:                                              ; preds = %124
  br label %137

133:                                              ; preds = %124
  %134 = load i32, ptr %17, align 4, !tbaa !12
  %135 = load i32, ptr %11, align 4, !tbaa !12
  %136 = sub i32 %134, %135
  br label %137

137:                                              ; preds = %133, %132
  %138 = phi i32 [ 0, %132 ], [ %136, %133 ]
  %139 = load i32, ptr %15, align 4, !tbaa !12
  %140 = icmp ne i32 %139, 0
  br i1 %140, label %141, label %143

141:                                              ; preds = %137
  %142 = load i32, ptr %13, align 4, !tbaa !12
  br label %144

143:                                              ; preds = %137
  br label %144

144:                                              ; preds = %143, %141
  %145 = phi i32 [ %142, %141 ], [ 0, %143 ]
  %146 = load ptr, ptr %12, align 8, !tbaa !7
  %147 = load ptr, ptr %20, align 8, !tbaa !7
  %148 = load i32, ptr %24, align 4, !tbaa !12
  %149 = icmp ne i32 %148, 0
  br i1 %149, label %150, label %155

150:                                              ; preds = %144
  %151 = load i32, ptr %17, align 4, !tbaa !12
  %152 = zext i32 %151 to i64
  %153 = add i64 %152, 3
  %154 = trunc i64 %153 to i32
  br label %156

155:                                              ; preds = %144
  br label %156

156:                                              ; preds = %155, %150
  %157 = phi i32 [ %154, %150 ], [ 0, %155 ]
  %158 = load i32, ptr %24, align 4, !tbaa !12
  %159 = icmp ne i32 %158, 0
  %160 = select i1 %159, ptr @.str.22, ptr @.str.23
  %161 = load i32, ptr %21, align 4, !tbaa !12
  %162 = load ptr, ptr %14, align 8, !tbaa !7
  %163 = call i32 (i32, ptr, ...) @__printf_chk(i32 noundef 1, ptr noundef @.str.21, ptr noundef %127, i32 noundef %128, ptr noundef %129, i32 noundef %138, i32 noundef %145, ptr noundef %146, ptr noundef %147, i32 noundef %157, ptr noundef %160, i32 noundef %161, ptr noundef %162)
  call void @llvm.lifetime.end.p0(i64 4, ptr %24) #24
  br label %164

164:                                              ; preds = %156, %109
  %165 = load i32, ptr %15, align 4, !tbaa !12
  %166 = icmp ne i32 %165, 0
  br i1 %166, label %167, label %190

167:                                              ; preds = %164
  br label %168

168:                                              ; preds = %175, %167
  %169 = load ptr, ptr %14, align 8, !tbaa !7
  %170 = load i32, ptr %21, align 4, !tbaa !12
  %171 = zext i32 %170 to i64
  %172 = getelementptr i8, ptr %169, i64 %171
  %173 = load i8, ptr %172, align 1, !tbaa !14
  %174 = icmp ne i8 %173, 0
  br i1 %174, label %175, label %189

175:                                              ; preds = %168
  %176 = load i32, ptr %21, align 4, !tbaa !12
  %177 = zext i32 %176 to i64
  %178 = add i64 %177, 1
  %179 = load ptr, ptr %14, align 8, !tbaa !7
  %180 = getelementptr i8, ptr %179, i64 %178
  store ptr %180, ptr %14, align 8, !tbaa !7
  %181 = load ptr, ptr %14, align 8, !tbaa !7
  %182 = call i64 @strcspn(ptr noundef %181, ptr noundef @.str.16) #25
  %183 = trunc i64 %182 to i32
  store i32 %183, ptr %21, align 4, !tbaa !12
  %184 = load i32, ptr %17, align 4, !tbaa !12
  %185 = add i32 %184, 2
  %186 = load i32, ptr %21, align 4, !tbaa !12
  %187 = load ptr, ptr %14, align 8, !tbaa !7
  %188 = call i32 (i32, ptr, ...) @__printf_chk(i32 noundef 1, ptr noundef @.str.19, i32 noundef %185, ptr noundef @.str.20, i32 noundef %186, ptr noundef %187)
  br label %168, !llvm.loop !15

189:                                              ; preds = %168
  br label %190

190:                                              ; preds = %189, %164
  call void @llvm.lifetime.end.p0(i64 4, ptr %21) #24
  call void @llvm.lifetime.end.p0(i64 8, ptr %20) #24
  call void @llvm.lifetime.end.p0(i64 8, ptr %19) #24
  ret void
}