; Function Attrs: nounwind sspstrong uwtable
define internal fastcc void @show_usage_part(ptr noundef %0, i32 noundef %1, ptr noundef %2, i32 noundef %3, ptr noundef %4, i32 noundef %5, i32 noundef %6, i32 noundef %7, i32 noundef %8) unnamed_addr #0 {
  %.not = icmp eq i32 %6, 0
  %10 = select i1 %.not, ptr @.str.23, ptr @esc_bold
  %11 = select i1 %.not, ptr @.str.23, ptr @esc_reset
  %12 = tail call i64 @strcspn(ptr noundef %4, ptr noundef nonnull @.str.16) #24
  %13 = trunc i64 %12 to i32
  %14 = icmp eq i32 %5, 0
  %15 = icmp ne i32 %13, 0
  %or.cond = select i1 %14, i1 %15, i1 false
  br i1 %or.cond, label %.thread, label %24

.thread:                                          ; preds = %9
  %16 = add i64 %12, 4294967295
  %17 = and i64 %16, 4294967295
  %18 = getelementptr i8, ptr %4, i64 %17
  %19 = load i8, ptr %18, align 1, !tbaa !7
  %20 = zext nneg i8 %19 to i64
  %memchr.bounds = icmp ult i8 %19, 64
  %21 = shl nuw i64 1, %20
  %22 = and i64 %21, 864761497199312897
  %memchr.bits = icmp ne i64 %22, 0
  %memchr69.not.not = select i1 %memchr.bounds, i1 %memchr.bits, i1 false
  %23 = sext i1 %memchr69.not.not to i32
  %spec.select = add i32 %23, %13
  br label %46

24:                                               ; preds = %9
  %25 = add i32 %1, 1
  %26 = icmp ule i32 %25, %7
  %or.cond76.not = or i1 %14, %26
  br i1 %or.cond76.not, label %46, label %27

27:                                               ; preds = %24
  %28 = add i32 %3, %1
  %29 = add i32 %28, 2
  %.not72 = icmp slt i32 %29, %8
  br i1 %.not72, label %46, label %30

30:                                               ; preds = %27
  %31 = tail call i32 (i32, ptr, ...) @__printf_chk(i32 noundef 1, ptr noundef nonnull @.str.18, ptr noundef nonnull %10, i32 noundef %1, ptr noundef %0, ptr noundef nonnull %11) #25
  %.not73 = icmp eq i32 %3, 0
  br i1 %.not73, label %.thread87, label %32

32:                                               ; preds = %30
  %33 = load i8, ptr %2, align 1, !tbaa !7
  %34 = icmp eq i8 %33, 44
  %spec.select77 = zext i1 %34 to i32
  %35 = zext i1 %34 to i64
  %36 = getelementptr i8, ptr %2, i64 %35
  %37 = load i8, ptr %36, align 1, !tbaa !7
  %38 = icmp eq i8 %37, 32
  %39 = select i1 %34, i32 2, i32 1
  %.1 = select i1 %38, i32 %39, i32 %spec.select77
  %40 = sub i32 %3, %.1
  %41 = zext nneg i32 %.1 to i64
  %42 = getelementptr i8, ptr %2, i64 %41
  %43 = tail call i32 (i32, ptr, ...) @__printf_chk(i32 noundef 1, ptr noundef nonnull @.str.18, ptr noundef nonnull %10, i32 noundef %40, ptr noundef %42, ptr noundef nonnull %11) #25
  br label %.thread87

.thread87:                                        ; preds = %30, %32
  %44 = add i32 %7, 2
  %45 = tail call i32 (i32, ptr, ...) @__printf_chk(i32 noundef 1, ptr noundef nonnull @.str.19, i32 noundef %44, ptr noundef nonnull @.str.20, i32 noundef %13, ptr noundef %4) #25
  br label %.preheader

46:                                               ; preds = %24, %27, %.thread
  %.06482 = phi i32 [ %spec.select, %.thread ], [ %13, %27 ], [ %13, %24 ]
  %47 = add i32 %3, %1
  %48 = icmp ult i32 %47, %7
  %49 = select i1 %14, i32 0, i32 %3
  %.not85 = or i1 %14, %48
  %50 = sub i32 %7, %1
  %51 = select i1 %.not85, i32 %50, i32 0
  %52 = add i32 %7, 3
  %53 = select i1 %.not85, i32 0, i32 %52
  %54 = select i1 %.not85, ptr @.str.23, ptr @.str.22
  %55 = tail call i32 (i32, ptr, ...) @__printf_chk(i32 noundef 1, ptr noundef nonnull @.str.21, ptr noundef nonnull %10, i32 noundef %1, ptr noundef %0, i32 noundef %51, i32 noundef %49, ptr noundef %2, ptr noundef nonnull %11, i32 noundef %53, ptr noundef nonnull %54, i32 noundef %.06482, ptr noundef %4) #25
  br i1 %14, label %.loopexit, label %.preheader

.preheader:                                       ; preds = %.thread87, %46
  %.0648189 = phi i32 [ %13, %.thread87 ], [ %.06482, %46 ]
  %56 = zext i32 %.0648189 to i64
  %57 = getelementptr i8, ptr %4, i64 %56
  %58 = load i8, ptr %57, align 1, !tbaa !7
  %.not7486 = icmp eq i8 %58, 0
  br i1 %.not7486, label %.loopexit, label %.lr.ph

.lr.ph:                                           ; preds = %.preheader
  %59 = add i32 %7, 2
  br label %60

60:                                               ; preds = %.lr.ph, %60
  %61 = phi ptr [ %57, %.lr.ph ], [ %67, %60 ]
  %62 = getelementptr i8, ptr %61, i64 1
  %63 = tail call i64 @strcspn(ptr noundef %62, ptr noundef nonnull @.str.16) #24
  %64 = trunc i64 %63 to i32
  %65 = tail call i32 (i32, ptr, ...) @__printf_chk(i32 noundef 1, ptr noundef nonnull @.str.19, i32 noundef %59, ptr noundef nonnull @.str.20, i32 noundef %64, ptr noundef %62) #25
  %66 = and i64 %63, 4294967295
  %67 = getelementptr i8, ptr %62, i64 %66
  %68 = load i8, ptr %67, align 1, !tbaa !7
  %.not74 = icmp eq i8 %68, 0
  br i1 %.not74, label %.loopexit, label %60, !llvm.loop !10

.loopexit:                                        ; preds = %60, %.preheader, %46
  ret void
}